target datalayout = "e-m:e-p270:32:32-p271:32:32-p272:64:64-i64:64-i128:128-f80:128-n8:16:32:64-S128"
target triple = "x86_64-pc-linux-gnu"

%struct.ma_allocation_callbacks = type { ptr, ptr, ptr, ptr }
%struct.ma_rb = type { ptr, i32, i32, i32, i32, i32, i8, i8, %struct.ma_allocation_callbacks }

; Function Attrs: alwaysinline nounwind uwtable
define internal i32 @ma_rb__extract_offset_loop_flag(i32 noundef %0) #7 {
  %2 = alloca i32, align 4
  store i32 %0, ptr %2, align 4, !tbaa !8
  %3 = load i32, ptr %2, align 4, !tbaa !8
  %4 = and i32 %3, -2147483648
  ret i32 %4
}

; Function Attrs: alwaysinline nounwind uwtable
define internal i32 @ma_rb__extract_offset_in_bytes(i32 noundef %0) #7 {
  %2 = alloca i32, align 4
  store i32 %0, ptr %2, align 4, !tbaa !8
  %3 = load i32, ptr %2, align 4, !tbaa !8
  %4 = and i32 %3, 2147483647
  ret i32 %4
}

; Function Attrs: alwaysinline nounwind uwtable
define internal i32 @ma_rb__construct_offset(i32 noundef %0, i32 noundef %1) #7 {
  %3 = alloca i32, align 4
  %4 = alloca i32, align 4
  store i32 %0, ptr %3, align 4, !tbaa !8
  store i32 %1, ptr %4, align 4, !tbaa !8
  %5 = load i32, ptr %4, align 4, !tbaa !8
  %6 = load i32, ptr %3, align 4, !tbaa !8
  %7 = or i32 %5, %6
  ret i32 %7
}

; Function Attrs: alwaysinline nounwind uwtable
define internal void @ma_rb__deconstruct_offset(i32 noundef %0, ptr noundef %1, ptr noundef %2) #7 {
  %4 = alloca i32, align 4
  %5 = alloca ptr, align 8
  %6 = alloca ptr, align 8
  store i32 %0, ptr %4, align 4, !tbaa !8
  store ptr %1, ptr %5, align 8, !tbaa !3
  store ptr %2, ptr %6, align 8, !tbaa !3
  %7 = load i32, ptr %4, align 4, !tbaa !8
  %8 = call i32 @ma_rb__extract_offset_in_bytes(i32 noundef %7)
  %9 = load ptr, ptr %5, align 8, !tbaa !3
  store i32 %8, ptr %9, align 4, !tbaa !8
  %10 = load i32, ptr %4, align 4, !tbaa !8
  %11 = call i32 @ma_rb__extract_offset_loop_flag(i32 noundef %10)
  %12 = load ptr, ptr %6, align 8, !tbaa !3
  store i32 %11, ptr %12, align 4, !tbaa !8
  ret void
}

; Function Attrs: nounwind uwtable
define i32 @ma_rb_seek_write(ptr noundef %0, i64 noundef %1) #0 {
  %3 = alloca i32, align 4
  %4 = alloca ptr, align 8
  %5 = alloca i64, align 8
  %6 = alloca i32, align 4
  %7 = alloca i32, align 4
  %8 = alloca i32, align 4
  %9 = alloca i32, align 4
  %10 = alloca i32, align 4
  %11 = alloca i32, align 4
  %12 = alloca i32, align 4
  %13 = alloca i32, align 4
  %14 = alloca i32, align 4
  %15 = alloca i32, align 4
  %16 = alloca i32, align 4
  %17 = alloca i32, align 4
  %18 = alloca i32, align 4
  store ptr %0, ptr %4, align 8, !tbaa !25
  store i64 %1, ptr %5, align 8, !tbaa !12
  call void @llvm.lifetime.start.p0(i64 4, ptr %6) #16
  call void @llvm.lifetime.start.p0(i64 4, ptr %7) #16
  call void @llvm.lifetime.start.p0(i64 4, ptr %8) #16
  call void @llvm.lifetime.start.p0(i64 4, ptr %9) #16
  call void @llvm.lifetime.start.p0(i64 4, ptr %10) #16
  call void @llvm.lifetime.start.p0(i64 4, ptr %11) #16
  call void @llvm.lifetime.start.p0(i64 4, ptr %12) #16
  call void @llvm.lifetime.start.p0(i64 4, ptr %13) #16
  %19 = load ptr, ptr %4, align 8, !tbaa !25
  %20 = icmp eq ptr %19, null
  br i1 %20, label %21, label %22

21:                                               ; preds = %2
  store i32 -2, ptr %3, align 4
  store i32 1, ptr %14, align 4
  br label %91

22:                                               ; preds = %2
  %23 = load ptr, ptr %4, align 8, !tbaa !25
  %24 = getelementptr inbounds nuw %struct.ma_rb, ptr %23, i32 0, i32 4
  %25 = load atomic i32, ptr %24 seq_cst, align 4
  store i32 %25, ptr %15, align 4
  %26 = load i32, ptr %15, align 4, !tbaa !8
  store i32 %26, ptr %6, align 4, !tbaa !8
  %27 = load i32, ptr %6, align 4, !tbaa !8
  call void @ma_rb__deconstruct_offset(i32 noundef %27, ptr noundef %7, ptr noundef %8)
  %28 = load ptr, ptr %4, align 8, !tbaa !25
  %29 = getelementptr inbounds nuw %struct.ma_rb, ptr %28, i32 0, i32 5
  %30 = load atomic i32, ptr %29 seq_cst, align 8
  store i32 %30, ptr %16, align 4
  %31 = load i32, ptr %16, align 4, !tbaa !8
  store i32 %31, ptr %9, align 4, !tbaa !8
  %32 = load i32, ptr %9, align 4, !tbaa !8
  call void @ma_rb__deconstruct_offset(i32 noundef %32, ptr noundef %10, ptr noundef %11)
  %33 = load i32, ptr %11, align 4, !tbaa !8
  store i32 %33, ptr %13, align 4, !tbaa !8
  %34 = load i32, ptr %8, align 4, !tbaa !8
  %35 = load i32, ptr %11, align 4, !tbaa !8
  %36 = icmp eq i32 %34, %35
  br i1 %36, label %37, label %66

37:                                               ; preds = %22
  %38 = load i32, ptr %10, align 4, !tbaa !8
  %39 = zext i32 %38 to i64
  %40 = load i64, ptr %5, align 8, !tbaa !12
  %41 = add i64 %39, %40
  %42 = load ptr, ptr %4, align 8, !tbaa !25
  %43 = getelementptr inbounds nuw %struct.ma_rb, ptr %42, i32 0, i32 1
  %44 = load i32, ptr %43, align 8, !tbaa !844
  %45 = zext i32 %44 to i64
  %46 = icmp uge i64 %41, %45
  br i1 %46, label %47, label %59

47:                                               ; preds = %37
  %48 = load i32, ptr %10, align 4, !tbaa !8
  %49 = zext i32 %48 to i64
  %50 = load i64, ptr %5, align 8, !tbaa !12
  %51 = add i64 %49, %50
  %52 = trunc i64 %51 to i32
  %53 = load ptr, ptr %4, align 8, !tbaa !25
  %54 = getelementptr inbounds nuw %struct.ma_rb, ptr %53, i32 0, i32 1
  %55 = load i32, ptr %54, align 8, !tbaa !844
  %56 = sub i32 %52, %55
  store i32 %56, ptr %12, align 4, !tbaa !8
  %57 = load i32, ptr %13, align 4, !tbaa !8
  %58 = xor i32 %57, -2147483648
  store i32 %58, ptr %13, align 4, !tbaa !8
  br label %65

59:                                               ; preds = %37
  %60 = load i32, ptr %10, align 4, !tbaa !8
  %61 = zext i32 %60 to i64
  %62 = load i64, ptr %5, align 8, !tbaa !12
  %63 = add i64 %61, %62
  %64 = trunc i64 %63 to i32
  store i32 %64, ptr %12, align 4, !tbaa !8
  br label %65

65:                                               ; preds = %59, %47
  br label %83

66:                                               ; preds = %22
  %67 = load i32, ptr %10, align 4, !tbaa !8
  %68 = zext i32 %67 to i64
  %69 = load i64, ptr %5, align 8, !tbaa !12
  %70 = add i64 %68, %69
  %71 = load i32, ptr %7, align 4, !tbaa !8
  %72 = zext i32 %71 to i64
  %73 = icmp ugt i64 %70, %72
  br i1 %73, label %74, label %76

74:                                               ; preds = %66
  %75 = load i32, ptr %7, align 4, !tbaa !8
  store i32 %75, ptr %12, align 4, !tbaa !8
  br label %82

76:                                               ; preds = %66
  %77 = load i32, ptr %10, align 4, !tbaa !8
  %78 = zext i32 %77 to i64
  %79 = load i64, ptr %5, align 8, !tbaa !12
  %80 = add i64 %78, %79
  %81 = trunc i64 %80 to i32
  store i32 %81, ptr %12, align 4, !tbaa !8
  br label %82

82:                                               ; preds = %76, %74
  br label %83

83:                                               ; preds = %82, %65
  %84 = load ptr, ptr %4, align 8, !tbaa !25
  %85 = getelementptr inbounds nuw %struct.ma_rb, ptr %84, i32 0, i32 5
  %86 = load i32, ptr %12, align 4, !tbaa !8
  %87 = load i32, ptr %13, align 4, !tbaa !8
  %88 = call i32 @ma_rb__construct_offset(i32 noundef %86, i32 noundef %87)
  store i32 %88, ptr %17, align 4, !tbaa !8
  %89 = load i32, ptr %17, align 4
  %90 = atomicrmw xchg ptr %85, i32 %89 seq_cst, align 8
  store i32 %90, ptr %18, align 4
  store i32 0, ptr %3, align 4
  store i32 1, ptr %14, align 4
  br label %91

91:                                               ; preds = %83, %21
  call void @llvm.lifetime.end.p0(i64 4, ptr %13) #16
  call void @llvm.lifetime.end.p0(i64 4, ptr %12) #16
  call void @llvm.lifetime.end.p0(i64 4, ptr %11) #16
  call void @llvm.lifetime.end.p0(i64 4, ptr %10) #16
  call void @llvm.lifetime.end.p0(i64 4, ptr %9) #16
  call void @llvm.lifetime.end.p0(i64 4, ptr %8) #16
  call void @llvm.lifetime.end.p0(i64 4, ptr %7) #16
  call void @llvm.lifetime.end.p0(i64 4, ptr %6) #16
  %92 = load i32, ptr %3, align 4
  ret i32 %92
}