; Function Attrs: mustprogress nofree norecurse nounwind willreturn memory(argmem: readwrite) uwtable
define range(i32 -2, 1) i32 @ma_rb_seek_write(ptr noundef captures(address_is_null) %0, i64 noundef %1) local_unnamed_addr #26 {
  %3 = icmp eq ptr %0, null
  br i1 %3, label %31, label %4

4:                                                ; preds = %2
  %5 = getelementptr inbounds nuw i8, ptr %0, i64 20
  %6 = load atomic i32, ptr %5 seq_cst, align 4
  %7 = and i32 %6, -2147483648
  %8 = getelementptr inbounds nuw i8, ptr %0, i64 24
  %9 = load atomic i32, ptr %8 seq_cst, align 8
  %10 = and i32 %9, 2147483647
  %11 = and i32 %9, -2147483648
  %12 = icmp eq i32 %7, %11
  br i1 %12, label %13, label %23

13:                                               ; preds = %4
  %14 = zext nneg i32 %10 to i64
  %15 = add i64 %1, %14
  %16 = getelementptr inbounds nuw i8, ptr %0, i64 8
  %17 = load i32, ptr %16, align 8, !tbaa !345
  %18 = zext i32 %17 to i64
  %.not = icmp ult i64 %15, %18
  %19 = trunc i64 %15 to i32
  br i1 %.not, label %28, label %20

20:                                               ; preds = %13
  %21 = sub i32 %19, %17
  %22 = xor i32 %7, -2147483648
  br label %28

23:                                               ; preds = %4
  %24 = and i32 %6, 2147483647
  %25 = zext nneg i32 %10 to i64
  %26 = add i64 %1, %25
  %27 = zext nneg i32 %24 to i64
  %spec.select30 = tail call i64 @llvm.umin.i64(i64 %26, i64 %27)
  %spec.select = trunc nuw nsw i64 %spec.select30 to i32
  br label %28

28:                                               ; preds = %13, %23, %20
  %.020 = phi i32 [ %22, %20 ], [ %11, %23 ], [ %7, %13 ]
  %.019 = phi i32 [ %21, %20 ], [ %spec.select, %23 ], [ %19, %13 ]
  %29 = or i32 %.019, %.020
  %30 = atomicrmw xchg ptr %8, i32 %29 seq_cst, align 8
  br label %31

31:                                               ; preds = %2, %28
  %.0 = phi i32 [ 0, %28 ], [ -2, %2 ]
  ret i32 %.0
}